target datalayout = "e-m:e-p270:32:32-p271:32:32-p272:64:64-i64:64-i128:128-f80:128-n8:16:32:64-S128"
target triple = "x86_64-pc-linux-gnu"

%struct.SDL_AudioQueue = type { ptr, ptr, ptr, i64, i64, %struct.SDL_MemoryPool, %struct.SDL_MemoryPool }
%struct.SDL_MemoryPool = type { ptr, i64, i64, i64 }

; Function Attrs: nounwind uwtable
define internal void @FreeMemoryPoolBlock(ptr noundef %0, ptr noundef %1) #0 {
  %3 = alloca ptr, align 8
  %4 = alloca ptr, align 8
  store ptr %0, ptr %3, align 8
  store ptr %1, ptr %4, align 8
  %5 = load ptr, ptr %3, align 8
  %6 = getelementptr inbounds nuw %struct.SDL_MemoryPool, ptr %5, i32 0, i32 2
  %7 = load i64, ptr %6, align 8
  %8 = load ptr, ptr %3, align 8
  %9 = getelementptr inbounds nuw %struct.SDL_MemoryPool, ptr %8, i32 0, i32 3
  %10 = load i64, ptr %9, align 8
  %11 = icmp ult i64 %7, %10
  br i1 %11, label %12, label %24

12:                                               ; preds = %2
  %13 = load ptr, ptr %3, align 8
  %14 = getelementptr inbounds nuw %struct.SDL_MemoryPool, ptr %13, i32 0, i32 0
  %15 = load ptr, ptr %14, align 8
  %16 = load ptr, ptr %4, align 8
  store ptr %15, ptr %16, align 8
  %17 = load ptr, ptr %4, align 8
  %18 = load ptr, ptr %3, align 8
  %19 = getelementptr inbounds nuw %struct.SDL_MemoryPool, ptr %18, i32 0, i32 0
  store ptr %17, ptr %19, align 8
  %20 = load ptr, ptr %3, align 8
  %21 = getelementptr inbounds nuw %struct.SDL_MemoryPool, ptr %20, i32 0, i32 2
  %22 = load i64, ptr %21, align 8
  %23 = add i64 %22, 1
  store i64 %23, ptr %21, align 8
  br label %26

24:                                               ; preds = %2
  %25 = load ptr, ptr %4, align 8
  call void @SDL_free_REAL(ptr noundef %25)
  br label %26

26:                                               ; preds = %24, %12
  ret void
}

; Function Attrs: nounwind uwtable
define internal void @FreeChunkedAudioBuffer(ptr noundef %0, ptr noundef %1, i32 noundef %2) #0 {
  %4 = alloca ptr, align 8
  %5 = alloca ptr, align 8
  %6 = alloca i32, align 4
  %7 = alloca ptr, align 8
  store ptr %0, ptr %4, align 8
  store ptr %1, ptr %5, align 8
  store i32 %2, ptr %6, align 4
  call void @llvm.lifetime.start.p0(i64 8, ptr %7) #6
  %8 = load ptr, ptr %4, align 8
  store ptr %8, ptr %7, align 8
  %9 = load ptr, ptr %7, align 8
  %10 = getelementptr inbounds nuw %struct.SDL_AudioQueue, ptr %9, i32 0, i32 6
  %11 = load ptr, ptr %5, align 8
  call void @FreeMemoryPoolBlock(ptr noundef %10, ptr noundef %11)
  call void @llvm.lifetime.end.p0(i64 8, ptr %7) #6
  ret void
}