; Function Attrs: nounwind uwtable
define internal void @FreeChunkedAudioBuffer(ptr noundef captures(none) %0, ptr noundef %1, i32 %2) #0 {
  %4 = getelementptr inbounds nuw i8, ptr %0, i64 88
  %5 = load i64, ptr %4, align 8
  %6 = getelementptr inbounds nuw i8, ptr %0, i64 96
  %7 = load i64, ptr %6, align 8
  %8 = icmp ult i64 %5, %7
  br i1 %8, label %9, label %14

9:                                                ; preds = %3
  %10 = getelementptr inbounds nuw i8, ptr %0, i64 72
  %11 = load ptr, ptr %10, align 8
  store ptr %11, ptr %1, align 8
  store ptr %1, ptr %10, align 8
  %12 = load i64, ptr %4, align 8
  %13 = add i64 %12, 1
  store i64 %13, ptr %4, align 8
  br label %FreeMemoryPoolBlock.exit

14:                                               ; preds = %3
  tail call void @SDL_free_REAL(ptr noundef %1) #10
  br label %FreeMemoryPoolBlock.exit

FreeMemoryPoolBlock.exit:                         ; preds = %9, %14
  ret void
}